; Function Attrs: mustprogress uwtable
define hidden noundef zeroext i1 @_ZN4cvc58internal12SortTypeSizeclENS0_12NodeTemplateILb1EEES3_(ptr noundef nonnull align 8 dereferenceable(48) %0, ptr noundef nonnull %1, ptr noundef %2) local_unnamed_addr #3 align 2 personality ptr @__gxx_personality_v0 {
  %4 = alloca %"class.cvc5::internal::TypeNode", align 8
  %5 = alloca %"class.cvc5::internal::TypeNode", align 8
  call void @llvm.lifetime.start.p0(i64 8, ptr nonnull %4) #18
  call void @_ZNK4cvc58internal12NodeTemplateILb1EE7getTypeEb(ptr dead_on_unwind nonnull writable sret(%"class.cvc5::internal::TypeNode") align 8 %4, ptr noundef nonnull align 8 dereferenceable(8) %1, i1 noundef zeroext false)
  %6 = invoke noundef i64 @_ZN4cvc58internal12SortTypeSize11getTypeSizeERKNS0_8TypeNodeE(ptr noundef nonnull align 8 dereferenceable(48) %0, ptr noundef nonnull align 8 dereferenceable(8) %4)
          to label %7 unwind label %39

7:                                                ; preds = %3
  %8 = trunc i64 %6 to i32
  %9 = load ptr, ptr %4, align 8, !tbaa !3
  %10 = load i64, ptr %9, align 8
  %11 = and i64 %10, 1152920405095219200
  %.not.i.i = icmp eq i64 %11, 1152920405095219200
  br i1 %.not.i.i, label %_ZN4cvc58internal8TypeNodeD2Ev.exit, label %12, !prof !9

12:                                               ; preds = %7
  %13 = add i64 %10, 1152920405095219200
  %14 = and i64 %13, 1152920405095219200
  %15 = and i64 %10, -1152920405095219201
  %16 = or disjoint i64 %14, %15
  store i64 %16, ptr %9, align 8
  %17 = icmp eq i64 %14, 0
  br i1 %17, label %18, label %_ZN4cvc58internal8TypeNodeD2Ev.exit, !prof !9

18:                                               ; preds = %12
  invoke void @_ZN4cvc58internal4expr9NodeValue15markForDeletionEv(ptr noundef nonnull align 8 dereferenceable(24) %9)
          to label %_ZN4cvc58internal8TypeNodeD2Ev.exit unwind label %19

19:                                               ; preds = %18
  %20 = landingpad { ptr, i32 }
          catch ptr null
  %21 = extractvalue { ptr, i32 } %20, 0
  call void @__clang_call_terminate(ptr %21) #19
  unreachable

_ZN4cvc58internal8TypeNodeD2Ev.exit:              ; preds = %7, %12, %18
  call void @llvm.lifetime.end.p0(i64 8, ptr nonnull %4) #18
  call void @llvm.lifetime.start.p0(i64 8, ptr nonnull %5) #18
  call void @_ZNK4cvc58internal12NodeTemplateILb1EE7getTypeEb(ptr dead_on_unwind nonnull writable sret(%"class.cvc5::internal::TypeNode") align 8 %5, ptr noundef nonnull align 8 dereferenceable(8) %2, i1 noundef zeroext false)
  %22 = invoke noundef i64 @_ZN4cvc58internal12SortTypeSize11getTypeSizeERKNS0_8TypeNodeE(ptr noundef nonnull align 8 dereferenceable(48) %0, ptr noundef nonnull align 8 dereferenceable(8) %5)
          to label %23 unwind label %41

23:                                               ; preds = %_ZN4cvc58internal8TypeNodeD2Ev.exit
  %24 = trunc i64 %22 to i32
  %25 = load ptr, ptr %5, align 8, !tbaa !3
  %26 = load i64, ptr %25, align 8
  %27 = and i64 %26, 1152920405095219200
  %.not.i.i12 = icmp eq i64 %27, 1152920405095219200
  br i1 %.not.i.i12, label %_ZN4cvc58internal8TypeNodeD2Ev.exit13, label %28, !prof !9

28:                                               ; preds = %23
  %29 = add i64 %26, 1152920405095219200
  %30 = and i64 %29, 1152920405095219200
  %31 = and i64 %26, -1152920405095219201
  %32 = or disjoint i64 %30, %31
  store i64 %32, ptr %25, align 8
  %33 = icmp eq i64 %30, 0
  br i1 %33, label %34, label %_ZN4cvc58internal8TypeNodeD2Ev.exit13, !prof !9

34:                                               ; preds = %28
  invoke void @_ZN4cvc58internal4expr9NodeValue15markForDeletionEv(ptr noundef nonnull align 8 dereferenceable(24) %25)
          to label %_ZN4cvc58internal8TypeNodeD2Ev.exit13 unwind label %35

35:                                               ; preds = %34
  %36 = landingpad { ptr, i32 }
          catch ptr null
  %37 = extractvalue { ptr, i32 } %36, 0
  call void @__clang_call_terminate(ptr %37) #19
  unreachable

_ZN4cvc58internal8TypeNodeD2Ev.exit13:            ; preds = %23, %28, %34
  call void @llvm.lifetime.end.p0(i64 8, ptr nonnull %5) #18
  %38 = icmp slt i32 %8, %24
  br i1 %38, label %53, label %43

39:                                               ; preds = %3
  %40 = landingpad { ptr, i32 }
          cleanup
  call void @_ZN4cvc58internal8TypeNodeD2Ev(ptr noundef nonnull align 8 dereferenceable(8) %4) #18
  call void @llvm.lifetime.end.p0(i64 8, ptr nonnull %4) #18
  br label %54

41:                                               ; preds = %_ZN4cvc58internal8TypeNodeD2Ev.exit
  %42 = landingpad { ptr, i32 }
          cleanup
  call void @_ZN4cvc58internal8TypeNodeD2Ev(ptr noundef nonnull align 8 dereferenceable(8) %5) #18
  call void @llvm.lifetime.end.p0(i64 8, ptr nonnull %5) #18
  br label %54

43:                                               ; preds = %_ZN4cvc58internal8TypeNodeD2Ev.exit13
  %44 = icmp eq i32 %8, %24
  br i1 %44, label %45, label %53

45:                                               ; preds = %43
  %46 = load ptr, ptr %1, align 8, !tbaa !10
  %47 = load i64, ptr %46, align 8
  %48 = and i64 %47, 1099511627775
  %49 = load ptr, ptr %2, align 8, !tbaa !10
  %50 = load i64, ptr %49, align 8
  %51 = and i64 %50, 1099511627775
  %52 = icmp samesign ult i64 %48, %51
  br label %53

53:                                               ; preds = %43, %_ZN4cvc58internal8TypeNodeD2Ev.exit13, %45
  %.0 = phi i1 [ %52, %45 ], [ true, %_ZN4cvc58internal8TypeNodeD2Ev.exit13 ], [ false, %43 ]
  ret i1 %.0

54:                                               ; preds = %41, %39
  %.pn = phi { ptr, i32 } [ %42, %41 ], [ %40, %39 ]
  resume { ptr, i32 } %.pn
}